; Function Attrs: mustprogress uwtable
define noundef zeroext i1 @_ZN5draco37SequentialAttributeEncodersController4InitEPNS_17PointCloudEncoderEPKNS_10PointCloudE(ptr noundef nonnull align 8 dereferenceable(168) %0, ptr noundef %1, ptr noundef %2) unnamed_addr #3 align 2 {
  %4 = tail call noundef zeroext i1 @_ZN5draco17AttributesEncoder4InitEPNS_17PointCloudEncoderEPKNS_10PointCloudE(ptr noundef nonnull align 8 dereferenceable(72) %0, ptr noundef %1, ptr noundef %2)
  br i1 %4, label %5, label %.loopexit

5:                                                ; preds = %3
  %6 = load ptr, ptr %0, align 8, !tbaa !3
  %7 = getelementptr inbounds nuw i8, ptr %6, i64 104
  %8 = load ptr, ptr %7, align 8
  %9 = tail call noundef zeroext i1 %8(ptr noundef nonnull align 8 dereferenceable(168) %0)
  br i1 %9, label %.preheader, label %.loopexit

.preheader:                                       ; preds = %5
  %10 = getelementptr inbounds nuw i8, ptr %0, i64 8
  %11 = getelementptr inbounds nuw i8, ptr %0, i64 16
  %12 = load ptr, ptr %11, align 8, !tbaa !15
  %13 = load ptr, ptr %10, align 8, !tbaa !18
  %14 = ptrtoint ptr %12 to i64
  %15 = ptrtoint ptr %13 to i64
  %16 = sub i64 %14, %15
  %17 = and i64 %16, 17179869180
  %18 = icmp eq i64 %17, 0
  br i1 %18, label %.loopexit, label %.lr.ph

.lr.ph:                                           ; preds = %.preheader
  %19 = getelementptr inbounds nuw i8, ptr %0, i64 72
  br label %29

20:                                               ; preds = %29
  %21 = add nuw i32 %.01314, 1
  %22 = load ptr, ptr %11, align 8, !tbaa !15
  %23 = load ptr, ptr %10, align 8, !tbaa !18
  %24 = ptrtoint ptr %22 to i64
  %25 = ptrtoint ptr %23 to i64
  %26 = sub i64 %24, %25
  %27 = lshr exact i64 %26, 2
  %28 = trunc i64 %27 to i32
  %.not = icmp ult i32 %21, %28
  br i1 %.not, label %29, label %.loopexit, !llvm.loop !19

29:                                               ; preds = %.lr.ph, %20
  %30 = phi ptr [ %13, %.lr.ph ], [ %23, %20 ]
  %.01314 = phi i32 [ 0, %.lr.ph ], [ %21, %20 ]
  %31 = sext i32 %.01314 to i64
  %32 = getelementptr inbounds nuw i32, ptr %30, i64 %31
  %33 = load i32, ptr %32, align 4, !tbaa !21
  %34 = zext i32 %.01314 to i64
  %35 = load ptr, ptr %19, align 8, !tbaa !22
  %36 = getelementptr inbounds nuw %"class.std::unique_ptr.16", ptr %35, i64 %34
  %37 = load ptr, ptr %36, align 8, !tbaa !25
  %38 = load ptr, ptr %37, align 8, !tbaa !3
  %39 = getelementptr inbounds nuw i8, ptr %38, i64 16
  %40 = load ptr, ptr %39, align 8
  %41 = tail call noundef zeroext i1 %40(ptr noundef nonnull align 8 dereferenceable(72) %37, ptr noundef %1, i32 noundef %33)
  br i1 %41, label %20, label %.loopexit

.loopexit:                                        ; preds = %20, %29, %.preheader, %5, %3
  %.0 = phi i1 [ false, %3 ], [ false, %5 ], [ true, %.preheader ], [ %41, %29 ], [ %41, %20 ]
  ret i1 %.0
}